target datalayout = "e-m:e-p270:32:32-p271:32:32-p272:64:64-i64:64-i128:128-f80:128-n8:16:32:64-S128"
target triple = "x86_64-pc-linux-gnu"

%struct.FunctionCallInfoBaseData = type { ptr, ptr, ptr, i32, i8, i16, [0 x %struct.NullableDatum] }
%struct.NullableDatum = type { i64, i8 }
%struct.Node = type { i32 }
%struct.SupportRequestRows = type { i32, ptr, i32, ptr, double }
%struct.FuncExpr = type { %struct.Expr, i32, i32, i8, i8, i32, i32, i32, ptr, i32 }
%struct.Expr = type { i32 }
%struct.Const = type { %struct.Expr, i32, i32, i32, i32, i64, i8, i8, i32 }
%struct.List = type { i32, i32, i32, ptr, [0 x %union.ListCell] }
%union.ListCell = type { ptr }

; Function Attrs: inlinehint nounwind uwtable
define internal i64 @PointerGetDatum(ptr noundef %0) #2 {
  %2 = alloca ptr, align 8
  store ptr %0, ptr %2, align 8
  %3 = load ptr, ptr %2, align 8
  %4 = ptrtoint ptr %3 to i64
  ret i64 %4
}

; Function Attrs: inlinehint nounwind uwtable
define internal i32 @DatumGetInt32(i64 noundef %0) #2 {
  %2 = alloca i64, align 8
  store i64 %0, ptr %2, align 8
  %3 = load i64, ptr %2, align 8
  %4 = trunc i64 %3 to i32
  ret i32 %4
}

; Function Attrs: inlinehint nounwind uwtable
define internal i32 @list_length(ptr noundef %0) #2 {
  %2 = alloca ptr, align 8
  store ptr %0, ptr %2, align 8
  %3 = load ptr, ptr %2, align 8
  %4 = icmp ne ptr %3, null
  br i1 %4, label %5, label %9

5:                                                ; preds = %1
  %6 = load ptr, ptr %2, align 8
  %7 = getelementptr inbounds nuw %struct.List, ptr %6, i32 0, i32 1
  %8 = load i32, ptr %7, align 4
  br label %10

9:                                                ; preds = %1
  br label %10

10:                                               ; preds = %9, %5
  %11 = phi i32 [ %8, %5 ], [ 0, %9 ]
  ret i32 %11
}

; Function Attrs: inlinehint nounwind uwtable
define internal ptr @list_nth_cell(ptr noundef %0, i32 noundef %1) #2 {
  %3 = alloca ptr, align 8
  %4 = alloca i32, align 4
  store ptr %0, ptr %3, align 8
  store i32 %1, ptr %4, align 4
  %5 = load ptr, ptr %3, align 8
  %6 = getelementptr inbounds nuw %struct.List, ptr %5, i32 0, i32 3
  %7 = load ptr, ptr %6, align 8
  %8 = load i32, ptr %4, align 4
  %9 = sext i32 %8 to i64
  %10 = getelementptr inbounds %union.ListCell, ptr %7, i64 %9
  ret ptr %10
}

; Function Attrs: inlinehint nounwind uwtable
define internal zeroext i1 @is_funcclause(ptr noundef %0) #2 {
  %2 = alloca ptr, align 8
  store ptr %0, ptr %2, align 8
  %3 = load ptr, ptr %2, align 8
  %4 = icmp ne ptr %3, null
  br i1 %4, label %5, label %10

5:                                                ; preds = %1
  %6 = load ptr, ptr %2, align 8
  %7 = getelementptr inbounds nuw %struct.Node, ptr %6, i32 0, i32 0
  %8 = load i32, ptr %7, align 4
  %9 = icmp eq i32 %8, 15
  br label %10

10:                                               ; preds = %5, %1
  %11 = phi i1 [ false, %1 ], [ %9, %5 ]
  ret i1 %11
}

; Function Attrs: inlinehint nounwind uwtable
define internal ptr @DatumGetPointer(i64 noundef %0) #2 {
  %2 = alloca i64, align 8
  store i64 %0, ptr %2, align 8
  %3 = load i64, ptr %2, align 8
  %4 = inttoptr i64 %3 to ptr
  ret ptr %4
}

; Function Attrs: nounwind uwtable
define dso_local i64 @generate_series_int4_support(ptr noundef %0) #0 {
  %2 = alloca ptr, align 8
  %3 = alloca ptr, align 8
  %4 = alloca ptr, align 8
  %5 = alloca ptr, align 8
  %6 = alloca ptr, align 8
  %7 = alloca ptr, align 8
  %8 = alloca ptr, align 8
  %9 = alloca ptr, align 8
  %10 = alloca double, align 8
  %11 = alloca double, align 8
  %12 = alloca double, align 8
  store ptr %0, ptr %2, align 8
  call void @llvm.lifetime.start.p0(i64 8, ptr %3) #10
  %13 = load ptr, ptr %2, align 8
  %14 = getelementptr inbounds nuw %struct.FunctionCallInfoBaseData, ptr %13, i32 0, i32 6
  %15 = getelementptr inbounds [0 x %struct.NullableDatum], ptr %14, i64 0, i64 0
  %16 = getelementptr inbounds nuw %struct.NullableDatum, ptr %15, i32 0, i32 0
  %17 = load i64, ptr %16, align 8
  %18 = call ptr @DatumGetPointer(i64 noundef %17)
  store ptr %18, ptr %3, align 8
  call void @llvm.lifetime.start.p0(i64 8, ptr %4) #10
  store ptr null, ptr %4, align 8
  %19 = load ptr, ptr %3, align 8
  %20 = getelementptr inbounds nuw %struct.Node, ptr %19, i32 0, i32 0
  %21 = load i32, ptr %20, align 4
  %22 = icmp eq i32 %21, 459
  br i1 %22, label %23, label %156

23:                                               ; preds = %1
  call void @llvm.lifetime.start.p0(i64 8, ptr %5) #10
  %24 = load ptr, ptr %3, align 8
  store ptr %24, ptr %5, align 8
  %25 = load ptr, ptr %5, align 8
  %26 = getelementptr inbounds nuw %struct.SupportRequestRows, ptr %25, i32 0, i32 3
  %27 = load ptr, ptr %26, align 8
  %28 = call zeroext i1 @is_funcclause(ptr noundef %27)
  br i1 %28, label %29, label %155

29:                                               ; preds = %23
  call void @llvm.lifetime.start.p0(i64 8, ptr %6) #10
  %30 = load ptr, ptr %5, align 8
  %31 = getelementptr inbounds nuw %struct.SupportRequestRows, ptr %30, i32 0, i32 3
  %32 = load ptr, ptr %31, align 8
  %33 = getelementptr inbounds nuw %struct.FuncExpr, ptr %32, i32 0, i32 8
  %34 = load ptr, ptr %33, align 8
  store ptr %34, ptr %6, align 8
  call void @llvm.lifetime.start.p0(i64 8, ptr %7) #10
  call void @llvm.lifetime.start.p0(i64 8, ptr %8) #10
  call void @llvm.lifetime.start.p0(i64 8, ptr %9) #10
  %35 = load ptr, ptr %5, align 8
  %36 = getelementptr inbounds nuw %struct.SupportRequestRows, ptr %35, i32 0, i32 1
  %37 = load ptr, ptr %36, align 8
  %38 = load ptr, ptr %6, align 8
  %39 = call ptr @list_nth_cell(ptr noundef %38, i32 noundef 0)
  %40 = load ptr, ptr %39, align 8
  %41 = call ptr @estimate_expression_value(ptr noundef %37, ptr noundef %40)
  store ptr %41, ptr %7, align 8
  %42 = load ptr, ptr %5, align 8
  %43 = getelementptr inbounds nuw %struct.SupportRequestRows, ptr %42, i32 0, i32 1
  %44 = load ptr, ptr %43, align 8
  %45 = load ptr, ptr %6, align 8
  %46 = call ptr @list_nth_cell(ptr noundef %45, i32 noundef 1)
  %47 = load ptr, ptr %46, align 8
  %48 = call ptr @estimate_expression_value(ptr noundef %44, ptr noundef %47)
  store ptr %48, ptr %8, align 8
  %49 = load ptr, ptr %6, align 8
  %50 = call i32 @list_length(ptr noundef %49)
  %51 = icmp sge i32 %50, 3
  br i1 %51, label %52, label %60

52:                                               ; preds = %29
  %53 = load ptr, ptr %5, align 8
  %54 = getelementptr inbounds nuw %struct.SupportRequestRows, ptr %53, i32 0, i32 1
  %55 = load ptr, ptr %54, align 8
  %56 = load ptr, ptr %6, align 8
  %57 = call ptr @list_nth_cell(ptr noundef %56, i32 noundef 2)
  %58 = load ptr, ptr %57, align 8
  %59 = call ptr @estimate_expression_value(ptr noundef %55, ptr noundef %58)
  store ptr %59, ptr %9, align 8
  br label %61

60:                                               ; preds = %29
  store ptr null, ptr %9, align 8
  br label %61

61:                                               ; preds = %60, %52
  %62 = load ptr, ptr %7, align 8
  %63 = getelementptr inbounds nuw %struct.Node, ptr %62, i32 0, i32 0
  %64 = load i32, ptr %63, align 4
  %65 = icmp eq i32 %64, 7
  br i1 %65, label %66, label %71

66:                                               ; preds = %61
  %67 = load ptr, ptr %7, align 8
  %68 = getelementptr inbounds nuw %struct.Const, ptr %67, i32 0, i32 6
  %69 = load i8, ptr %68, align 8, !range !7, !noundef !8
  %70 = trunc i8 %69 to i1
  br i1 %70, label %94, label %71

71:                                               ; preds = %66, %61
  %72 = load ptr, ptr %8, align 8
  %73 = getelementptr inbounds nuw %struct.Node, ptr %72, i32 0, i32 0
  %74 = load i32, ptr %73, align 4
  %75 = icmp eq i32 %74, 7
  br i1 %75, label %76, label %81

76:                                               ; preds = %71
  %77 = load ptr, ptr %8, align 8
  %78 = getelementptr inbounds nuw %struct.Const, ptr %77, i32 0, i32 6
  %79 = load i8, ptr %78, align 8, !range !7, !noundef !8
  %80 = trunc i8 %79 to i1
  br i1 %80, label %94, label %81

81:                                               ; preds = %76, %71
  %82 = load ptr, ptr %9, align 8
  %83 = icmp ne ptr %82, null
  br i1 %83, label %84, label %98

84:                                               ; preds = %81
  %85 = load ptr, ptr %9, align 8
  %86 = getelementptr inbounds nuw %struct.Node, ptr %85, i32 0, i32 0
  %87 = load i32, ptr %86, align 4
  %88 = icmp eq i32 %87, 7
  br i1 %88, label %89, label %98

89:                                               ; preds = %84
  %90 = load ptr, ptr %9, align 8
  %91 = getelementptr inbounds nuw %struct.Const, ptr %90, i32 0, i32 6
  %92 = load i8, ptr %91, align 8, !range !7, !noundef !8
  %93 = trunc i8 %92 to i1
  br i1 %93, label %94, label %98

94:                                               ; preds = %89, %76, %66
  %95 = load ptr, ptr %5, align 8
  %96 = getelementptr inbounds nuw %struct.SupportRequestRows, ptr %95, i32 0, i32 4
  store double 0.000000e+00, ptr %96, align 8
  %97 = load ptr, ptr %5, align 8
  store ptr %97, ptr %4, align 8
  br label %154

98:                                               ; preds = %89, %84, %81
  %99 = load ptr, ptr %7, align 8
  %100 = getelementptr inbounds nuw %struct.Node, ptr %99, i32 0, i32 0
  %101 = load i32, ptr %100, align 4
  %102 = icmp eq i32 %101, 7
  br i1 %102, label %103, label %153

103:                                              ; preds = %98
  %104 = load ptr, ptr %8, align 8
  %105 = getelementptr inbounds nuw %struct.Node, ptr %104, i32 0, i32 0
  %106 = load i32, ptr %105, align 4
  %107 = icmp eq i32 %106, 7
  br i1 %107, label %108, label %153

108:                                              ; preds = %103
  %109 = load ptr, ptr %9, align 8
  %110 = icmp eq ptr %109, null
  br i1 %110, label %116, label %111

111:                                              ; preds = %108
  %112 = load ptr, ptr %9, align 8
  %113 = getelementptr inbounds nuw %struct.Node, ptr %112, i32 0, i32 0
  %114 = load i32, ptr %113, align 4
  %115 = icmp eq i32 %114, 7
  br i1 %115, label %116, label %153

116:                                              ; preds = %111, %108
  call void @llvm.lifetime.start.p0(i64 8, ptr %10) #10
  call void @llvm.lifetime.start.p0(i64 8, ptr %11) #10
  call void @llvm.lifetime.start.p0(i64 8, ptr %12) #10
  %117 = load ptr, ptr %7, align 8
  %118 = getelementptr inbounds nuw %struct.Const, ptr %117, i32 0, i32 5
  %119 = load i64, ptr %118, align 8
  %120 = call i32 @DatumGetInt32(i64 noundef %119)
  %121 = sitofp i32 %120 to double
  store double %121, ptr %10, align 8
  %122 = load ptr, ptr %8, align 8
  %123 = getelementptr inbounds nuw %struct.Const, ptr %122, i32 0, i32 5
  %124 = load i64, ptr %123, align 8
  %125 = call i32 @DatumGetInt32(i64 noundef %124)
  %126 = sitofp i32 %125 to double
  store double %126, ptr %11, align 8
  %127 = load ptr, ptr %9, align 8
  %128 = icmp ne ptr %127, null
  br i1 %128, label %129, label %134

129:                                              ; preds = %116
  %130 = load ptr, ptr %9, align 8
  %131 = getelementptr inbounds nuw %struct.Const, ptr %130, i32 0, i32 5
  %132 = load i64, ptr %131, align 8
  %133 = call i32 @DatumGetInt32(i64 noundef %132)
  br label %135

134:                                              ; preds = %116
  br label %135

135:                                              ; preds = %134, %129
  %136 = phi i32 [ %133, %129 ], [ 1, %134 ]
  %137 = sitofp i32 %136 to double
  store double %137, ptr %12, align 8
  %138 = load double, ptr %12, align 8
  %139 = fcmp une double %138, 0.000000e+00
  br i1 %139, label %140, label %152

140:                                              ; preds = %135
  %141 = load double, ptr %11, align 8
  %142 = load double, ptr %10, align 8
  %143 = fsub double %141, %142
  %144 = load double, ptr %12, align 8
  %145 = fadd double %143, %144
  %146 = load double, ptr %12, align 8
  %147 = fdiv double %145, %146
  %148 = call double @llvm.floor.f64(double %147)
  %149 = load ptr, ptr %5, align 8
  %150 = getelementptr inbounds nuw %struct.SupportRequestRows, ptr %149, i32 0, i32 4
  store double %148, ptr %150, align 8
  %151 = load ptr, ptr %5, align 8
  store ptr %151, ptr %4, align 8
  br label %152

152:                                              ; preds = %140, %135
  call void @llvm.lifetime.end.p0(i64 8, ptr %12) #10
  call void @llvm.lifetime.end.p0(i64 8, ptr %11) #10
  call void @llvm.lifetime.end.p0(i64 8, ptr %10) #10
  br label %153

153:                                              ; preds = %152, %111, %103, %98
  br label %154

154:                                              ; preds = %153, %94
  call void @llvm.lifetime.end.p0(i64 8, ptr %9) #10
  call void @llvm.lifetime.end.p0(i64 8, ptr %8) #10
  call void @llvm.lifetime.end.p0(i64 8, ptr %7) #10
  call void @llvm.lifetime.end.p0(i64 8, ptr %6) #10
  br label %155

155:                                              ; preds = %154, %23
  call void @llvm.lifetime.end.p0(i64 8, ptr %5) #10
  br label %156

156:                                              ; preds = %155, %1
  %157 = load ptr, ptr %4, align 8
  %158 = call i64 @PointerGetDatum(ptr noundef %157)
  call void @llvm.lifetime.end.p0(i64 8, ptr %4) #10
  call void @llvm.lifetime.end.p0(i64 8, ptr %3) #10
  ret i64 %158
}