; Function Attrs: nounwind uwtable
define dso_local i64 @generate_series_int4_support(ptr noundef readonly captures(none) %0) local_unnamed_addr #0 {
  %2 = getelementptr inbounds nuw i8, ptr %0, i64 32
  %3 = load i64, ptr %2, align 8
  %4 = inttoptr i64 %3 to ptr
  %5 = load i32, ptr %4, align 4
  %6 = icmp eq i32 %5, 459
  br i1 %6, label %7, label %is_funcclause.exit.thread

7:                                                ; preds = %1
  %8 = getelementptr inbounds nuw i8, ptr %4, i64 24
  %9 = load ptr, ptr %8, align 8
  %.not.i = icmp eq ptr %9, null
  br i1 %.not.i, label %is_funcclause.exit.thread, label %is_funcclause.exit

is_funcclause.exit:                               ; preds = %7
  %10 = load i32, ptr %9, align 4
  %11 = icmp eq i32 %10, 15
  br i1 %11, label %list_length.exit, label %is_funcclause.exit.thread

list_length.exit:                                 ; preds = %is_funcclause.exit
  %12 = getelementptr inbounds nuw i8, ptr %9, i64 32
  %13 = load ptr, ptr %12, align 8
  %14 = getelementptr inbounds nuw i8, ptr %4, i64 8
  %15 = load ptr, ptr %14, align 8
  %16 = getelementptr i8, ptr %13, i64 16
  %.val = load ptr, ptr %16, align 8
  %17 = load ptr, ptr %.val, align 8
  %18 = tail call ptr @estimate_expression_value(ptr noundef %15, ptr noundef %17) #13
  %19 = load ptr, ptr %14, align 8
  %.val39 = load ptr, ptr %16, align 8
  %20 = getelementptr inbounds nuw i8, ptr %.val39, i64 8
  %21 = load ptr, ptr %20, align 8
  %22 = tail call ptr @estimate_expression_value(ptr noundef %19, ptr noundef %21) #13
  %23 = getelementptr inbounds nuw i8, ptr %13, i64 4
  %24 = load i32, ptr %23, align 4
  %25 = icmp sgt i32 %24, 2
  br i1 %25, label %26, label %31

26:                                               ; preds = %list_length.exit
  %27 = load ptr, ptr %14, align 8
  %.val40 = load ptr, ptr %16, align 8
  %28 = getelementptr inbounds nuw i8, ptr %.val40, i64 16
  %29 = load ptr, ptr %28, align 8
  %30 = tail call ptr @estimate_expression_value(ptr noundef %27, ptr noundef %29) #13
  br label %31

31:                                               ; preds = %list_length.exit, %26
  %.037 = phi ptr [ %30, %26 ], [ null, %list_length.exit ]
  %32 = load i32, ptr %18, align 4
  %33 = icmp ne i32 %32, 7
  br i1 %33, label %38, label %34

34:                                               ; preds = %31
  %35 = getelementptr inbounds nuw i8, ptr %18, i64 32
  %36 = load i8, ptr %35, align 8, !range !17, !noundef !18
  %37 = trunc nuw i8 %36 to i1
  br i1 %37, label %is_funcclause.exit.thread.sink.split, label %38

38:                                               ; preds = %34, %31
  %39 = load i32, ptr %22, align 4
  %40 = icmp ne i32 %39, 7
  br i1 %40, label %45, label %41

41:                                               ; preds = %38
  %42 = getelementptr inbounds nuw i8, ptr %22, i64 32
  %43 = load i8, ptr %42, align 8, !range !17, !noundef !18
  %44 = trunc nuw i8 %43 to i1
  br i1 %44, label %is_funcclause.exit.thread.sink.split, label %45

45:                                               ; preds = %41, %38
  %.not = icmp eq ptr %.037, null
  br i1 %.not, label %.thread, label %46

46:                                               ; preds = %45
  %47 = load i32, ptr %.037, align 4
  %48 = icmp eq i32 %47, 7
  br i1 %48, label %49, label %53

49:                                               ; preds = %46
  %50 = getelementptr inbounds nuw i8, ptr %.037, i64 32
  %51 = load i8, ptr %50, align 8, !range !17, !noundef !18
  %52 = trunc nuw i8 %51 to i1
  br i1 %52, label %is_funcclause.exit.thread.sink.split, label %53

53:                                               ; preds = %49, %46
  %brmerge = or i1 %33, %40
  br i1 %brmerge, label %is_funcclause.exit.thread, label %54

.thread:                                          ; preds = %45
  %brmerge47 = or i1 %33, %40
  br i1 %brmerge47, label %is_funcclause.exit.thread, label %.thread42

54:                                               ; preds = %53
  %55 = load i32, ptr %.037, align 4
  %56 = icmp eq i32 %55, 7
  br i1 %56, label %57, label %is_funcclause.exit.thread

57:                                               ; preds = %54
  %58 = getelementptr inbounds nuw i8, ptr %.037, i64 24
  %59 = load i64, ptr %58, align 8
  %60 = trunc i64 %59 to i32
  %61 = sitofp i32 %60 to double
  %.not45 = icmp eq i32 %60, 0
  br i1 %.not45, label %is_funcclause.exit.thread, label %.thread42

.thread42:                                        ; preds = %.thread, %57
  %62 = phi double [ %61, %57 ], [ 1.000000e+00, %.thread ]
  %.in46.in.in = getelementptr inbounds nuw i8, ptr %22, i64 24
  %.in46.in = load i64, ptr %.in46.in.in, align 8
  %.in46 = trunc i64 %.in46.in to i32
  %63 = sitofp i32 %.in46 to double
  %.in.in.in = getelementptr inbounds nuw i8, ptr %18, i64 24
  %.in.in = load i64, ptr %.in.in.in, align 8
  %.in = trunc i64 %.in.in to i32
  %64 = sitofp i32 %.in to double
  %65 = fsub double %63, %64
  %66 = fadd double %62, %65
  %67 = fdiv double %66, %62
  %68 = tail call double @llvm.floor.f64(double %67)
  br label %is_funcclause.exit.thread.sink.split

is_funcclause.exit.thread.sink.split:             ; preds = %34, %41, %49, %.thread42
  %.sink = phi double [ %68, %.thread42 ], [ 0.000000e+00, %49 ], [ 0.000000e+00, %41 ], [ 0.000000e+00, %34 ]
  %69 = getelementptr inbounds nuw i8, ptr %4, i64 32
  store double %.sink, ptr %69, align 8
  br label %is_funcclause.exit.thread

is_funcclause.exit.thread:                        ; preds = %is_funcclause.exit.thread.sink.split, %.thread, %53, %7, %is_funcclause.exit, %57, %54, %1
  %.0 = phi i64 [ 0, %1 ], [ 0, %is_funcclause.exit ], [ 0, %54 ], [ 0, %53 ], [ 0, %57 ], [ 0, %7 ], [ 0, %.thread ], [ %3, %is_funcclause.exit.thread.sink.split ]
  ret i64 %.0
}